; Function Attrs: mustprogress nounwind uwtable
define hidden void @_ZN2cv10PngEncoderD2Ev(ptr noundef nonnull align 8 dereferenceable(8960) %0) unnamed_addr #4 align 2 personality ptr @__gxx_personality_v0 {
  %2 = getelementptr inbounds nuw i8, ptr %0, i64 6408
  %3 = load ptr, ptr %2, align 8, !tbaa !209
  %4 = getelementptr inbounds nuw i8, ptr %0, i64 6424
  %.not.i.i = icmp eq ptr %3, %4
  br i1 %.not.i.i, label %_ZN2cv10AutoBufferIhLm1032EED2Ev.exit, label %5

5:                                                ; preds = %1
  %6 = icmp eq ptr %3, null
  br i1 %6, label %8, label %7

7:                                                ; preds = %5
  tail call void @_ZdaPv(ptr noundef nonnull %3) #32
  br label %8

8:                                                ; preds = %7, %5
  store ptr %4, ptr %2, align 8, !tbaa !209
  %9 = getelementptr inbounds nuw i8, ptr %0, i64 6416
  store i64 1032, ptr %9, align 8, !tbaa !211
  br label %_ZN2cv10AutoBufferIhLm1032EED2Ev.exit

_ZN2cv10AutoBufferIhLm1032EED2Ev.exit:            ; preds = %1, %8
  %10 = getelementptr inbounds nuw i8, ptr %0, i64 5360
  %11 = load ptr, ptr %10, align 8, !tbaa !209
  %12 = getelementptr inbounds nuw i8, ptr %0, i64 5376
  %.not.i.i1 = icmp eq ptr %11, %12
  br i1 %.not.i.i1, label %_ZN2cv10AutoBufferIhLm1032EED2Ev.exit2, label %13

13:                                               ; preds = %_ZN2cv10AutoBufferIhLm1032EED2Ev.exit
  %14 = icmp eq ptr %11, null
  br i1 %14, label %16, label %15

15:                                               ; preds = %13
  tail call void @_ZdaPv(ptr noundef nonnull %11) #32
  br label %16

16:                                               ; preds = %15, %13
  store ptr %12, ptr %10, align 8, !tbaa !209
  %17 = getelementptr inbounds nuw i8, ptr %0, i64 5368
  store i64 1032, ptr %17, align 8, !tbaa !211
  br label %_ZN2cv10AutoBufferIhLm1032EED2Ev.exit2

_ZN2cv10AutoBufferIhLm1032EED2Ev.exit2:           ; preds = %_ZN2cv10AutoBufferIhLm1032EED2Ev.exit, %16
  %18 = getelementptr inbounds nuw i8, ptr %0, i64 4312
  %19 = load ptr, ptr %18, align 8, !tbaa !209
  %20 = getelementptr inbounds nuw i8, ptr %0, i64 4328
  %.not.i.i3 = icmp eq ptr %19, %20
  br i1 %.not.i.i3, label %_ZN2cv10AutoBufferIhLm1032EED2Ev.exit4, label %21

21:                                               ; preds = %_ZN2cv10AutoBufferIhLm1032EED2Ev.exit2
  %22 = icmp eq ptr %19, null
  br i1 %22, label %24, label %23

23:                                               ; preds = %21
  tail call void @_ZdaPv(ptr noundef nonnull %19) #32
  br label %24

24:                                               ; preds = %23, %21
  store ptr %20, ptr %18, align 8, !tbaa !209
  %25 = getelementptr inbounds nuw i8, ptr %0, i64 4320
  store i64 1032, ptr %25, align 8, !tbaa !211
  br label %_ZN2cv10AutoBufferIhLm1032EED2Ev.exit4

_ZN2cv10AutoBufferIhLm1032EED2Ev.exit4:           ; preds = %_ZN2cv10AutoBufferIhLm1032EED2Ev.exit2, %24
  %26 = getelementptr inbounds nuw i8, ptr %0, i64 3264
  %27 = load ptr, ptr %26, align 8, !tbaa !209
  %28 = getelementptr inbounds nuw i8, ptr %0, i64 3280
  %.not.i.i5 = icmp eq ptr %27, %28
  br i1 %.not.i.i5, label %_ZN2cv10AutoBufferIhLm1032EED2Ev.exit6, label %29

29:                                               ; preds = %_ZN2cv10AutoBufferIhLm1032EED2Ev.exit4
  %30 = icmp eq ptr %27, null
  br i1 %30, label %32, label %31

31:                                               ; preds = %29
  tail call void @_ZdaPv(ptr noundef nonnull %27) #32
  br label %32

32:                                               ; preds = %31, %29
  store ptr %28, ptr %26, align 8, !tbaa !209
  %33 = getelementptr inbounds nuw i8, ptr %0, i64 3272
  store i64 1032, ptr %33, align 8, !tbaa !211
  br label %_ZN2cv10AutoBufferIhLm1032EED2Ev.exit6

_ZN2cv10AutoBufferIhLm1032EED2Ev.exit6:           ; preds = %_ZN2cv10AutoBufferIhLm1032EED2Ev.exit4, %32
  %34 = getelementptr inbounds nuw i8, ptr %0, i64 2216
  %35 = load ptr, ptr %34, align 8, !tbaa !209
  %36 = getelementptr inbounds nuw i8, ptr %0, i64 2232
  %.not.i.i7 = icmp eq ptr %35, %36
  br i1 %.not.i.i7, label %_ZN2cv10AutoBufferIhLm1032EED2Ev.exit8, label %37

37:                                               ; preds = %_ZN2cv10AutoBufferIhLm1032EED2Ev.exit6
  %38 = icmp eq ptr %35, null
  br i1 %38, label %40, label %39

39:                                               ; preds = %37
  tail call void @_ZdaPv(ptr noundef nonnull %35) #32
  br label %40

40:                                               ; preds = %39, %37
  store ptr %36, ptr %34, align 8, !tbaa !209
  %41 = getelementptr inbounds nuw i8, ptr %0, i64 2224
  store i64 1032, ptr %41, align 8, !tbaa !211
  br label %_ZN2cv10AutoBufferIhLm1032EED2Ev.exit8

_ZN2cv10AutoBufferIhLm1032EED2Ev.exit8:           ; preds = %_ZN2cv10AutoBufferIhLm1032EED2Ev.exit6, %40
  %42 = getelementptr inbounds nuw i8, ptr %0, i64 1168
  %43 = load ptr, ptr %42, align 8, !tbaa !209
  %44 = getelementptr inbounds nuw i8, ptr %0, i64 1184
  %.not.i.i9 = icmp eq ptr %43, %44
  br i1 %.not.i.i9, label %_ZN2cv10AutoBufferIhLm1032EED2Ev.exit10, label %45

45:                                               ; preds = %_ZN2cv10AutoBufferIhLm1032EED2Ev.exit8
  %46 = icmp eq ptr %43, null
  br i1 %46, label %48, label %47

47:                                               ; preds = %45
  tail call void @_ZdaPv(ptr noundef nonnull %43) #32
  br label %48

48:                                               ; preds = %47, %45
  store ptr %44, ptr %42, align 8, !tbaa !209
  %49 = getelementptr inbounds nuw i8, ptr %0, i64 1176
  store i64 1032, ptr %49, align 8, !tbaa !211
  br label %_ZN2cv10AutoBufferIhLm1032EED2Ev.exit10

_ZN2cv10AutoBufferIhLm1032EED2Ev.exit10:          ; preds = %_ZN2cv10AutoBufferIhLm1032EED2Ev.exit8, %48
  %50 = getelementptr inbounds nuw i8, ptr %0, i64 120
  %51 = load ptr, ptr %50, align 8, !tbaa !209
  %52 = getelementptr inbounds nuw i8, ptr %0, i64 136
  %.not.i.i11 = icmp eq ptr %51, %52
  br i1 %.not.i.i11, label %_ZN2cv10AutoBufferIhLm1032EED2Ev.exit12, label %53

53:                                               ; preds = %_ZN2cv10AutoBufferIhLm1032EED2Ev.exit10
  %54 = icmp eq ptr %51, null
  br i1 %54, label %56, label %55

55:                                               ; preds = %53
  tail call void @_ZdaPv(ptr noundef nonnull %51) #32
  br label %56

56:                                               ; preds = %55, %53
  store ptr %52, ptr %50, align 8, !tbaa !209
  %57 = getelementptr inbounds nuw i8, ptr %0, i64 128
  store i64 1032, ptr %57, align 8, !tbaa !211
  br label %_ZN2cv10AutoBufferIhLm1032EED2Ev.exit12

_ZN2cv10AutoBufferIhLm1032EED2Ev.exit12:          ; preds = %_ZN2cv10AutoBufferIhLm1032EED2Ev.exit10, %56
  store ptr getelementptr inbounds nuw inrange(-16, 88) (i8, ptr @_ZTVN2cv16BaseImageEncoderE, i64 16), ptr %0, align 8, !tbaa !39
  %58 = getelementptr inbounds nuw i8, ptr %0, i64 88
  %59 = load ptr, ptr %58, align 8, !tbaa !99
  %60 = getelementptr inbounds nuw i8, ptr %0, i64 104
  %61 = icmp eq ptr %59, %60
  br i1 %61, label %_ZNKSt7__cxx1112basic_stringIcSt11char_traitsIcESaIcEE11_M_is_localEv.exit.thread.i.i.i, label %_ZNKSt7__cxx1112basic_stringIcSt11char_traitsIcESaIcEE11_M_is_localEv.exit.i.i.i

_ZNKSt7__cxx1112basic_stringIcSt11char_traitsIcESaIcEE11_M_is_localEv.exit.thread.i.i.i: ; preds = %_ZN2cv10AutoBufferIhLm1032EED2Ev.exit12
  %62 = getelementptr inbounds nuw i8, ptr %0, i64 96
  %63 = load i64, ptr %62, align 8, !tbaa !41
  %64 = icmp ult i64 %63, 16
  tail call void @llvm.assume(i1 %64)
  br label %_ZNSt7__cxx1112basic_stringIcSt11char_traitsIcESaIcEED2Ev.exit.i

_ZNKSt7__cxx1112basic_stringIcSt11char_traitsIcESaIcEE11_M_is_localEv.exit.i.i.i: ; preds = %_ZN2cv10AutoBufferIhLm1032EED2Ev.exit12
  tail call void @_ZdlPv(ptr noundef %59) #32
  br label %_ZNSt7__cxx1112basic_stringIcSt11char_traitsIcESaIcEED2Ev.exit.i

_ZNSt7__cxx1112basic_stringIcSt11char_traitsIcESaIcEED2Ev.exit.i: ; preds = %_ZNKSt7__cxx1112basic_stringIcSt11char_traitsIcESaIcEE11_M_is_localEv.exit.i.i.i, %_ZNKSt7__cxx1112basic_stringIcSt11char_traitsIcESaIcEE11_M_is_localEv.exit.thread.i.i.i
  %65 = getelementptr inbounds nuw i8, ptr %0, i64 40
  %66 = load ptr, ptr %65, align 8, !tbaa !99
  %67 = getelementptr inbounds nuw i8, ptr %0, i64 56
  %68 = icmp eq ptr %66, %67
  br i1 %68, label %_ZNKSt7__cxx1112basic_stringIcSt11char_traitsIcESaIcEE11_M_is_localEv.exit.thread.i.i2.i, label %_ZNKSt7__cxx1112basic_stringIcSt11char_traitsIcESaIcEE11_M_is_localEv.exit.i.i1.i

_ZNKSt7__cxx1112basic_stringIcSt11char_traitsIcESaIcEE11_M_is_localEv.exit.thread.i.i2.i: ; preds = %_ZNSt7__cxx1112basic_stringIcSt11char_traitsIcESaIcEED2Ev.exit.i
  %69 = getelementptr inbounds nuw i8, ptr %0, i64 48
  %70 = load i64, ptr %69, align 8, !tbaa !41
  %71 = icmp ult i64 %70, 16
  tail call void @llvm.assume(i1 %71)
  br label %_ZNSt7__cxx1112basic_stringIcSt11char_traitsIcESaIcEED2Ev.exit3.i

_ZNKSt7__cxx1112basic_stringIcSt11char_traitsIcESaIcEE11_M_is_localEv.exit.i.i1.i: ; preds = %_ZNSt7__cxx1112basic_stringIcSt11char_traitsIcESaIcEED2Ev.exit.i
  tail call void @_ZdlPv(ptr noundef %66) #32
  br label %_ZNSt7__cxx1112basic_stringIcSt11char_traitsIcESaIcEED2Ev.exit3.i

_ZNSt7__cxx1112basic_stringIcSt11char_traitsIcESaIcEED2Ev.exit3.i: ; preds = %_ZNKSt7__cxx1112basic_stringIcSt11char_traitsIcESaIcEE11_M_is_localEv.exit.i.i1.i, %_ZNKSt7__cxx1112basic_stringIcSt11char_traitsIcESaIcEE11_M_is_localEv.exit.thread.i.i2.i
  %72 = getelementptr inbounds nuw i8, ptr %0, i64 8
  %73 = load ptr, ptr %72, align 8, !tbaa !99
  %74 = getelementptr inbounds nuw i8, ptr %0, i64 24
  %75 = icmp eq ptr %73, %74
  br i1 %75, label %_ZNKSt7__cxx1112basic_stringIcSt11char_traitsIcESaIcEE11_M_is_localEv.exit.thread.i.i5.i, label %_ZNKSt7__cxx1112basic_stringIcSt11char_traitsIcESaIcEE11_M_is_localEv.exit.i.i4.i

_ZNKSt7__cxx1112basic_stringIcSt11char_traitsIcESaIcEE11_M_is_localEv.exit.thread.i.i5.i: ; preds = %_ZNSt7__cxx1112basic_stringIcSt11char_traitsIcESaIcEED2Ev.exit3.i
  %76 = getelementptr inbounds nuw i8, ptr %0, i64 16
  %77 = load i64, ptr %76, align 8, !tbaa !41
  %78 = icmp ult i64 %77, 16
  tail call void @llvm.assume(i1 %78)
  br label %_ZN2cv16BaseImageEncoderD2Ev.exit

_ZNKSt7__cxx1112basic_stringIcSt11char_traitsIcESaIcEE11_M_is_localEv.exit.i.i4.i: ; preds = %_ZNSt7__cxx1112basic_stringIcSt11char_traitsIcESaIcEED2Ev.exit3.i
  tail call void @_ZdlPv(ptr noundef %73) #32
  br label %_ZN2cv16BaseImageEncoderD2Ev.exit

_ZN2cv16BaseImageEncoderD2Ev.exit:                ; preds = %_ZNKSt7__cxx1112basic_stringIcSt11char_traitsIcESaIcEE11_M_is_localEv.exit.thread.i.i5.i, %_ZNKSt7__cxx1112basic_stringIcSt11char_traitsIcESaIcEE11_M_is_localEv.exit.i.i4.i
  ret void
}